target datalayout = "e-m:e-p270:32:32-p271:32:32-p272:64:64-i64:64-i128:128-f80:128-n8:16:32:64-S128"
target triple = "x86_64-pc-linux-gnu"

%struct._DlsMat = type { i32, i64, i64, i64, i64, i64, i64, ptr, i64, ptr }

@.str = private unnamed_addr constant [2 x i8] c"\0A\00", align 1
@.str.1 = private unnamed_addr constant [7 x i8] c"%12g  \00", align 1
@.str.2 = private unnamed_addr constant [7 x i8] c"%12s  \00", align 1
@.str.3 = private unnamed_addr constant [1 x i8] zeroinitializer, align 1

; Function Attrs: nounwind uwtable
define void @SUNDlsMat_PrintMat(ptr noundef %0, ptr noundef %1) #0 {
  %3 = alloca ptr, align 8
  %4 = alloca ptr, align 8
  %5 = alloca i64, align 8
  %6 = alloca i64, align 8
  %7 = alloca i64, align 8
  %8 = alloca i64, align 8
  %9 = alloca ptr, align 8
  store ptr %0, ptr %3, align 8, !tbaa !7
  store ptr %1, ptr %4, align 8, !tbaa !34
  call void @llvm.lifetime.start.p0(i64 8, ptr %5) #4
  call void @llvm.lifetime.start.p0(i64 8, ptr %6) #4
  call void @llvm.lifetime.start.p0(i64 8, ptr %7) #4
  call void @llvm.lifetime.start.p0(i64 8, ptr %8) #4
  call void @llvm.lifetime.start.p0(i64 8, ptr %9) #4
  %10 = load ptr, ptr %3, align 8, !tbaa !7
  %11 = getelementptr inbounds nuw %struct._DlsMat, ptr %10, i32 0, i32 0
  %12 = load i32, ptr %11, align 8, !tbaa !21
  switch i32 %12, label %148 [
    i32 1, label %13
    i32 2, label %53
  ]

13:                                               ; preds = %2
  %14 = load ptr, ptr %4, align 8, !tbaa !34
  %15 = call i32 (ptr, ptr, ...) @fprintf(ptr noundef %14, ptr noundef @.str) #4
  store i64 0, ptr %5, align 8, !tbaa !3
  br label %16

16:                                               ; preds = %47, %13
  %17 = load i64, ptr %5, align 8, !tbaa !3
  %18 = load ptr, ptr %3, align 8, !tbaa !7
  %19 = getelementptr inbounds nuw %struct._DlsMat, ptr %18, i32 0, i32 1
  %20 = load i64, ptr %19, align 8, !tbaa !17
  %21 = icmp slt i64 %17, %20
  br i1 %21, label %22, label %50

22:                                               ; preds = %16
  store i64 0, ptr %6, align 8, !tbaa !3
  br label %23

23:                                               ; preds = %41, %22
  %24 = load i64, ptr %6, align 8, !tbaa !3
  %25 = load ptr, ptr %3, align 8, !tbaa !7
  %26 = getelementptr inbounds nuw %struct._DlsMat, ptr %25, i32 0, i32 2
  %27 = load i64, ptr %26, align 8, !tbaa !18
  %28 = icmp slt i64 %24, %27
  br i1 %28, label %29, label %44

29:                                               ; preds = %23
  %30 = load ptr, ptr %4, align 8, !tbaa !34
  %31 = load ptr, ptr %3, align 8, !tbaa !7
  %32 = getelementptr inbounds nuw %struct._DlsMat, ptr %31, i32 0, i32 9
  %33 = load ptr, ptr %32, align 8, !tbaa !15
  %34 = load i64, ptr %6, align 8, !tbaa !3
  %35 = getelementptr inbounds ptr, ptr %33, i64 %34
  %36 = load ptr, ptr %35, align 8, !tbaa !16
  %37 = load i64, ptr %5, align 8, !tbaa !3
  %38 = getelementptr inbounds double, ptr %36, i64 %37
  %39 = load double, ptr %38, align 8, !tbaa !32
  %40 = call i32 (ptr, ptr, ...) @fprintf(ptr noundef %30, ptr noundef @.str.1, double noundef %39) #4
  br label %41

41:                                               ; preds = %29
  %42 = load i64, ptr %6, align 8, !tbaa !3
  %43 = add nsw i64 %42, 1
  store i64 %43, ptr %6, align 8, !tbaa !3
  br label %23

44:                                               ; preds = %23
  %45 = load ptr, ptr %4, align 8, !tbaa !34
  %46 = call i32 (ptr, ptr, ...) @fprintf(ptr noundef %45, ptr noundef @.str) #4
  br label %47

47:                                               ; preds = %44
  %48 = load i64, ptr %5, align 8, !tbaa !3
  %49 = add nsw i64 %48, 1
  store i64 %49, ptr %5, align 8, !tbaa !3
  br label %16

50:                                               ; preds = %16
  %51 = load ptr, ptr %4, align 8, !tbaa !34
  %52 = call i32 (ptr, ptr, ...) @fprintf(ptr noundef %51, ptr noundef @.str) #4
  br label %148

53:                                               ; preds = %2
  %54 = load ptr, ptr %3, align 8, !tbaa !7
  %55 = getelementptr inbounds nuw %struct._DlsMat, ptr %54, i32 0, i32 9
  %56 = load ptr, ptr %55, align 8, !tbaa !15
  store ptr %56, ptr %9, align 8, !tbaa !22
  %57 = load ptr, ptr %4, align 8, !tbaa !34
  %58 = call i32 (ptr, ptr, ...) @fprintf(ptr noundef %57, ptr noundef @.str) #4
  store i64 0, ptr %5, align 8, !tbaa !3
  br label %59

59:                                               ; preds = %142, %53
  %60 = load i64, ptr %5, align 8, !tbaa !3
  %61 = load ptr, ptr %3, align 8, !tbaa !7
  %62 = getelementptr inbounds nuw %struct._DlsMat, ptr %61, i32 0, i32 2
  %63 = load i64, ptr %62, align 8, !tbaa !18
  %64 = icmp slt i64 %60, %63
  br i1 %64, label %65, label %145

65:                                               ; preds = %59
  %66 = load i64, ptr %5, align 8, !tbaa !3
  %67 = load ptr, ptr %3, align 8, !tbaa !7
  %68 = getelementptr inbounds nuw %struct._DlsMat, ptr %67, i32 0, i32 5
  %69 = load i64, ptr %68, align 8, !tbaa !24
  %70 = sub nsw i64 %66, %69
  %71 = icmp sgt i64 0, %70
  br i1 %71, label %72, label %73

72:                                               ; preds = %65
  br label %79

73:                                               ; preds = %65
  %74 = load i64, ptr %5, align 8, !tbaa !3
  %75 = load ptr, ptr %3, align 8, !tbaa !7
  %76 = getelementptr inbounds nuw %struct._DlsMat, ptr %75, i32 0, i32 5
  %77 = load i64, ptr %76, align 8, !tbaa !24
  %78 = sub nsw i64 %74, %77
  br label %79

79:                                               ; preds = %73, %72
  %80 = phi i64 [ 0, %72 ], [ %78, %73 ]
  store i64 %80, ptr %7, align 8, !tbaa !3
  %81 = load ptr, ptr %3, align 8, !tbaa !7
  %82 = getelementptr inbounds nuw %struct._DlsMat, ptr %81, i32 0, i32 2
  %83 = load i64, ptr %82, align 8, !tbaa !18
  %84 = sub nsw i64 %83, 1
  %85 = load i64, ptr %5, align 8, !tbaa !3
  %86 = load ptr, ptr %3, align 8, !tbaa !7
  %87 = getelementptr inbounds nuw %struct._DlsMat, ptr %86, i32 0, i32 4
  %88 = load i64, ptr %87, align 8, !tbaa !23
  %89 = add nsw i64 %85, %88
  %90 = icmp slt i64 %84, %89
  br i1 %90, label %91, label %96

91:                                               ; preds = %79
  %92 = load ptr, ptr %3, align 8, !tbaa !7
  %93 = getelementptr inbounds nuw %struct._DlsMat, ptr %92, i32 0, i32 2
  %94 = load i64, ptr %93, align 8, !tbaa !18
  %95 = sub nsw i64 %94, 1
  br label %102

96:                                               ; preds = %79
  %97 = load i64, ptr %5, align 8, !tbaa !3
  %98 = load ptr, ptr %3, align 8, !tbaa !7
  %99 = getelementptr inbounds nuw %struct._DlsMat, ptr %98, i32 0, i32 4
  %100 = load i64, ptr %99, align 8, !tbaa !23
  %101 = add nsw i64 %97, %100
  br label %102

102:                                              ; preds = %96, %91
  %103 = phi i64 [ %95, %91 ], [ %101, %96 ]
  store i64 %103, ptr %8, align 8, !tbaa !3
  store i64 0, ptr %6, align 8, !tbaa !3
  br label %104

104:                                              ; preds = %111, %102
  %105 = load i64, ptr %6, align 8, !tbaa !3
  %106 = load i64, ptr %7, align 8, !tbaa !3
  %107 = icmp slt i64 %105, %106
  br i1 %107, label %108, label %114

108:                                              ; preds = %104
  %109 = load ptr, ptr %4, align 8, !tbaa !34
  %110 = call i32 (ptr, ptr, ...) @fprintf(ptr noundef %109, ptr noundef @.str.2, ptr noundef @.str.3) #4
  br label %111

111:                                              ; preds = %108
  %112 = load i64, ptr %6, align 8, !tbaa !3
  %113 = add nsw i64 %112, 1
  store i64 %113, ptr %6, align 8, !tbaa !3
  br label %104

114:                                              ; preds = %104
  %115 = load i64, ptr %7, align 8, !tbaa !3
  store i64 %115, ptr %6, align 8, !tbaa !3
  br label %116

116:                                              ; preds = %136, %114
  %117 = load i64, ptr %6, align 8, !tbaa !3
  %118 = load i64, ptr %8, align 8, !tbaa !3
  %119 = icmp sle i64 %117, %118
  br i1 %119, label %120, label %139

120:                                              ; preds = %116
  %121 = load ptr, ptr %4, align 8, !tbaa !34
  %122 = load ptr, ptr %9, align 8, !tbaa !22
  %123 = load i64, ptr %6, align 8, !tbaa !3
  %124 = getelementptr inbounds ptr, ptr %122, i64 %123
  %125 = load ptr, ptr %124, align 8, !tbaa !16
  %126 = load i64, ptr %5, align 8, !tbaa !3
  %127 = load i64, ptr %6, align 8, !tbaa !3
  %128 = sub nsw i64 %126, %127
  %129 = load ptr, ptr %3, align 8, !tbaa !7
  %130 = getelementptr inbounds nuw %struct._DlsMat, ptr %129, i32 0, i32 6
  %131 = load i64, ptr %130, align 8, !tbaa !25
  %132 = add nsw i64 %128, %131
  %133 = getelementptr inbounds double, ptr %125, i64 %132
  %134 = load double, ptr %133, align 8, !tbaa !32
  %135 = call i32 (ptr, ptr, ...) @fprintf(ptr noundef %121, ptr noundef @.str.1, double noundef %134) #4
  br label %136

136:                                              ; preds = %120
  %137 = load i64, ptr %6, align 8, !tbaa !3
  %138 = add nsw i64 %137, 1
  store i64 %138, ptr %6, align 8, !tbaa !3
  br label %116

139:                                              ; preds = %116
  %140 = load ptr, ptr %4, align 8, !tbaa !34
  %141 = call i32 (ptr, ptr, ...) @fprintf(ptr noundef %140, ptr noundef @.str) #4
  br label %142

142:                                              ; preds = %139
  %143 = load i64, ptr %5, align 8, !tbaa !3
  %144 = add nsw i64 %143, 1
  store i64 %144, ptr %5, align 8, !tbaa !3
  br label %59

145:                                              ; preds = %59
  %146 = load ptr, ptr %4, align 8, !tbaa !34
  %147 = call i32 (ptr, ptr, ...) @fprintf(ptr noundef %146, ptr noundef @.str) #4
  br label %148

148:                                              ; preds = %2, %145, %50
  call void @llvm.lifetime.end.p0(i64 8, ptr %9) #4
  call void @llvm.lifetime.end.p0(i64 8, ptr %8) #4
  call void @llvm.lifetime.end.p0(i64 8, ptr %7) #4
  call void @llvm.lifetime.end.p0(i64 8, ptr %6) #4
  call void @llvm.lifetime.end.p0(i64 8, ptr %5) #4
  ret void
}