; Function Attrs: nofree nounwind uwtable
define void @SUNDlsMat_PrintMat(ptr noundef readonly captures(none) %0, ptr noundef captures(none) %1) local_unnamed_addr #7 {
  %3 = load i32, ptr %0, align 8, !tbaa !18
  switch i32 %3, label %56 [
    i32 1, label %4
    i32 2, label %24
  ]

4:                                                ; preds = %2
  %fputc53 = tail call i32 @fputc(i32 10, ptr %1)
  %5 = getelementptr inbounds nuw i8, ptr %0, i64 8
  %6 = load i64, ptr %5, align 8, !tbaa !14
  %7 = icmp sgt i64 %6, 0
  br i1 %7, label %.preheader.lr.ph, label %.sink.split

.preheader.lr.ph:                                 ; preds = %4
  %8 = getelementptr inbounds nuw i8, ptr %0, i64 16
  %9 = getelementptr inbounds nuw i8, ptr %0, i64 72
  br label %.preheader

.preheader:                                       ; preds = %.preheader.lr.ph, %._crit_edge67
  %.068 = phi i64 [ 0, %.preheader.lr.ph ], [ %21, %._crit_edge67 ]
  %10 = load i64, ptr %8, align 8, !tbaa !15
  %11 = icmp sgt i64 %10, 0
  br i1 %11, label %.lr.ph66, label %._crit_edge67

.lr.ph66:                                         ; preds = %.preheader, %.lr.ph66
  %.04465 = phi i64 [ %18, %.lr.ph66 ], [ 0, %.preheader ]
  %12 = load ptr, ptr %9, align 8, !tbaa !12
  %13 = getelementptr inbounds nuw ptr, ptr %12, i64 %.04465
  %14 = load ptr, ptr %13, align 8, !tbaa !13
  %15 = getelementptr inbounds nuw double, ptr %14, i64 %.068
  %16 = load double, ptr %15, align 8, !tbaa !22
  %17 = tail call i32 (ptr, ptr, ...) @fprintf(ptr noundef %1, ptr noundef nonnull @.str.1, double noundef %16) #13
  %18 = add nuw nsw i64 %.04465, 1
  %19 = load i64, ptr %8, align 8, !tbaa !15
  %20 = icmp slt i64 %18, %19
  br i1 %20, label %.lr.ph66, label %._crit_edge67

._crit_edge67:                                    ; preds = %.lr.ph66, %.preheader
  %fputc55 = tail call i32 @fputc(i32 10, ptr %1)
  %21 = add nuw nsw i64 %.068, 1
  %22 = load i64, ptr %5, align 8, !tbaa !14
  %23 = icmp slt i64 %21, %22
  br i1 %23, label %.preheader, label %.sink.split

24:                                               ; preds = %2
  %25 = getelementptr inbounds nuw i8, ptr %0, i64 72
  %26 = load ptr, ptr %25, align 8, !tbaa !12
  %fputc = tail call i32 @fputc(i32 10, ptr %1)
  %27 = getelementptr inbounds nuw i8, ptr %0, i64 16
  %28 = load i64, ptr %27, align 8, !tbaa !15
  %29 = icmp sgt i64 %28, 0
  br i1 %29, label %.lr.ph63, label %.sink.split

.lr.ph63:                                         ; preds = %24
  %30 = getelementptr inbounds nuw i8, ptr %0, i64 40
  %31 = getelementptr inbounds nuw i8, ptr %0, i64 32
  %32 = getelementptr inbounds nuw i8, ptr %0, i64 48
  br label %33

33:                                               ; preds = %.lr.ph63, %._crit_edge
  %34 = phi i64 [ %28, %.lr.ph63 ], [ %54, %._crit_edge ]
  %.161 = phi i64 [ 0, %.lr.ph63 ], [ %53, %._crit_edge ]
  %35 = load i64, ptr %30, align 8, !tbaa !20
  %36 = sub i64 %.161, %35
  %spec.select = tail call i64 @llvm.smax.i64(i64 %36, i64 0)
  %37 = load i64, ptr %31, align 8, !tbaa !19
  %38 = add nsw i64 %37, %.161
  %.not = icmp sgt i64 %34, %38
  %39 = add nsw i64 %34, -1
  %40 = select i1 %.not, i64 %38, i64 %39
  %41 = icmp sgt i64 %36, 0
  br i1 %41, label %.lr.ph, label %.preheader56

.preheader56:                                     ; preds = %.lr.ph, %33
  %.not5158 = icmp sgt i64 %spec.select, %40
  br i1 %.not5158, label %._crit_edge, label %.lr.ph60

.lr.ph:                                           ; preds = %33, %.lr.ph
  %.14557 = phi i64 [ %43, %.lr.ph ], [ 0, %33 ]
  %42 = tail call i32 (ptr, ptr, ...) @fprintf(ptr noundef %1, ptr noundef nonnull @.str.2, ptr noundef nonnull @.str.3) #13
  %43 = add nuw nsw i64 %.14557, 1
  %exitcond.not = icmp eq i64 %43, %36
  br i1 %exitcond.not, label %.preheader56, label %.lr.ph

.lr.ph60:                                         ; preds = %.preheader56, %.lr.ph60
  %.259 = phi i64 [ %52, %.lr.ph60 ], [ %spec.select, %.preheader56 ]
  %44 = getelementptr inbounds nuw ptr, ptr %26, i64 %.259
  %45 = load ptr, ptr %44, align 8, !tbaa !13
  %46 = sub nsw i64 %.161, %.259
  %47 = load i64, ptr %32, align 8, !tbaa !21
  %48 = getelementptr double, ptr %45, i64 %46
  %49 = getelementptr double, ptr %48, i64 %47
  %50 = load double, ptr %49, align 8, !tbaa !22
  %51 = tail call i32 (ptr, ptr, ...) @fprintf(ptr noundef %1, ptr noundef nonnull @.str.1, double noundef %50) #13
  %52 = add nuw nsw i64 %.259, 1
  %.not51.not = icmp slt i64 %.259, %40
  br i1 %.not51.not, label %.lr.ph60, label %._crit_edge

._crit_edge:                                      ; preds = %.lr.ph60, %.preheader56
  %fputc52 = tail call i32 @fputc(i32 10, ptr %1)
  %53 = add nuw nsw i64 %.161, 1
  %54 = load i64, ptr %27, align 8, !tbaa !15
  %55 = icmp slt i64 %53, %54
  br i1 %55, label %33, label %.sink.split

.sink.split:                                      ; preds = %._crit_edge, %._crit_edge67, %24, %4
  %fputc50 = tail call i32 @fputc(i32 10, ptr %1)
  br label %56

56:                                               ; preds = %.sink.split, %2
  ret void
}